; Function Attrs: nofree norecurse nosync nounwind memory(readwrite, inaccessiblemem: none) uwtable
define dso_local void @BlockRefTableEntrySetLimitBlock(ptr noundef captures(none) %0, i32 noundef %1) local_unnamed_addr #6 {
  %3 = getelementptr inbounds nuw i8, ptr %0, i64 16
  %4 = load i32, ptr %3, align 8
  %.not = icmp ult i32 %1, %4
  br i1 %.not, label %5, label %.loopexit

5:                                                ; preds = %2
  store i32 %1, ptr %3, align 8
  %6 = lshr i32 %1, 16
  %7 = and i32 %1, 65535
  %8 = getelementptr inbounds nuw i8, ptr %0, i64 24
  %9 = load i32, ptr %8, align 8
  %.not42 = icmp ult i32 %6, %9
  br i1 %.not42, label %.preheader44, label %.loopexit

.preheader44:                                     ; preds = %5
  %.03945 = add nuw nsw i32 %6, 1
  %10 = icmp ult i32 %.03945, %9
  br i1 %10, label %.lr.ph, label %._crit_edge

.lr.ph:                                           ; preds = %.preheader44
  %11 = getelementptr inbounds nuw i8, ptr %0, i64 40
  %12 = lshr i32 %1, 16
  %narrow = add nuw nsw i32 %12, 1
  %13 = zext nneg i32 %narrow to i64
  br label %14

14:                                               ; preds = %.lr.ph, %14
  %indvars.iv = phi i64 [ %13, %.lr.ph ], [ %indvars.iv.next, %14 ]
  %15 = load ptr, ptr %11, align 8
  %16 = getelementptr inbounds nuw i16, ptr %15, i64 %indvars.iv
  store i16 0, ptr %16, align 2
  %indvars.iv.next = add nuw nsw i64 %indvars.iv, 1
  %17 = load i32, ptr %8, align 8
  %18 = zext i32 %17 to i64
  %19 = icmp samesign ult i64 %indvars.iv.next, %18
  br i1 %19, label %14, label %._crit_edge, !llvm.loop !6

._crit_edge:                                      ; preds = %14, %.preheader44
  %20 = getelementptr inbounds nuw i8, ptr %0, i64 48
  %21 = load ptr, ptr %20, align 8
  %22 = zext nneg i32 %6 to i64
  %23 = getelementptr inbounds nuw ptr, ptr %21, i64 %22
  %24 = load ptr, ptr %23, align 8
  %25 = getelementptr inbounds nuw i8, ptr %0, i64 40
  %26 = load ptr, ptr %25, align 8
  %27 = getelementptr inbounds nuw i16, ptr %26, i64 %22
  %28 = load i16, ptr %27, align 2
  switch i16 %28, label %.lr.ph50 [
    i16 4096, label %.preheader
    i16 0, label %._crit_edge51
  ]

.preheader:                                       ; preds = %._crit_edge, %.preheader
  %.03853 = phi i32 [ %38, %.preheader ], [ %7, %._crit_edge ]
  %29 = and i32 %.03853, 15
  %30 = shl nuw nsw i32 1, %29
  %31 = lshr i32 %.03853, 4
  %32 = zext nneg i32 %31 to i64
  %33 = getelementptr inbounds nuw i16, ptr %24, i64 %32
  %34 = load i16, ptr %33, align 2
  %35 = trunc nuw i32 %30 to i16
  %36 = xor i16 %35, -1
  %37 = and i16 %34, %36
  store i16 %37, ptr %33, align 2
  %38 = add nuw nsw i32 %.03853, 1
  %exitcond.not = icmp eq i32 %38, 65536
  br i1 %exitcond.not, label %.loopexit, label %.preheader, !llvm.loop !8

.lr.ph50:                                         ; preds = %._crit_edge, %48
  %39 = phi ptr [ %49, %48 ], [ %26, %._crit_edge ]
  %indvars.iv55 = phi i64 [ %indvars.iv.next56, %48 ], [ 0, %._crit_edge ]
  %.049 = phi i32 [ %.1, %48 ], [ 0, %._crit_edge ]
  %40 = getelementptr inbounds nuw i16, ptr %24, i64 %indvars.iv55
  %41 = load i16, ptr %40, align 2
  %42 = zext i16 %41 to i32
  %43 = icmp samesign ugt i32 %7, %42
  br i1 %43, label %44, label %48

44:                                               ; preds = %.lr.ph50
  %45 = add i32 %.049, 1
  %46 = zext i32 %.049 to i64
  %47 = getelementptr inbounds nuw i16, ptr %24, i64 %46
  store i16 %41, ptr %47, align 2
  %.pre = load ptr, ptr %25, align 8
  br label %48

48:                                               ; preds = %.lr.ph50, %44
  %49 = phi ptr [ %.pre, %44 ], [ %39, %.lr.ph50 ]
  %.1 = phi i32 [ %45, %44 ], [ %.049, %.lr.ph50 ]
  %indvars.iv.next56 = add nuw nsw i64 %indvars.iv55, 1
  %50 = getelementptr inbounds nuw i16, ptr %49, i64 %22
  %51 = load i16, ptr %50, align 2
  %52 = zext i16 %51 to i64
  %53 = icmp samesign ult i64 %indvars.iv.next56, %52
  br i1 %53, label %.lr.ph50, label %._crit_edge51.loopexit, !llvm.loop !9

._crit_edge51.loopexit:                           ; preds = %48
  %54 = trunc i32 %.1 to i16
  br label %._crit_edge51

._crit_edge51:                                    ; preds = %._crit_edge, %._crit_edge51.loopexit
  %.lcssa47 = phi ptr [ %49, %._crit_edge51.loopexit ], [ %26, %._crit_edge ]
  %.0.lcssa = phi i16 [ %54, %._crit_edge51.loopexit ], [ %28, %._crit_edge ]
  %55 = getelementptr inbounds nuw i16, ptr %.lcssa47, i64 %22
  store i16 %.0.lcssa, ptr %55, align 2
  br label %.loopexit

.loopexit:                                        ; preds = %.preheader, %._crit_edge51, %5, %2
  ret void
}